target datalayout = "e-m:e-p270:32:32-p271:32:32-p272:64:64-i64:64-i128:128-f80:128-n8:16:32:64-S128"
target triple = "x86_64-pc-linux-gnu"

%struct.LOCKTAG = type { i32, i32, i32, i16, i8, i8 }
%struct.xl_standby_lock = type { i32, i32, i32 }
%struct.RecoveryLockXidEntry = type { i32, ptr }
%struct.RecoveryLockEntry = type { %struct.xl_standby_lock, ptr }

@RecoveryLockHash = internal global ptr null, align 8
@.str.7 = private unnamed_addr constant [10 x i8] c"standby.c\00", align 1
@.str.15 = private unnamed_addr constant [45 x i8] c"releasing recovery lock: xid %u db %u rel %u\00", align 1
@__func__.StandbyReleaseXidEntryLocks = private unnamed_addr constant [28 x i8] c"StandbyReleaseXidEntryLocks\00", align 1
@.str.16 = private unnamed_addr constant [108 x i8] c"RecoveryLockHash contains entry for lock no longer recorded by lock manager: xid %u database %u relation %u\00", align 1

; Function Attrs: nounwind uwtable
define internal void @StandbyReleaseXidEntryLocks(ptr noundef %0) #0 {
  %2 = alloca ptr, align 8
  %3 = alloca ptr, align 8
  %4 = alloca ptr, align 8
  %5 = alloca %struct.LOCKTAG, align 4
  store ptr %0, ptr %2, align 8
  call void @llvm.lifetime.start.p0(i64 8, ptr %3) #8
  call void @llvm.lifetime.start.p0(i64 8, ptr %4) #8
  %6 = load ptr, ptr %2, align 8
  %7 = getelementptr inbounds nuw %struct.RecoveryLockXidEntry, ptr %6, i32 0, i32 1
  %8 = load ptr, ptr %7, align 8
  store ptr %8, ptr %3, align 8
  br label %9

9:                                                ; preds = %80, %1
  %10 = load ptr, ptr %3, align 8
  %11 = icmp ne ptr %10, null
  br i1 %11, label %12, label %82

12:                                               ; preds = %9
  call void @llvm.lifetime.start.p0(i64 16, ptr %5) #8
  br label %13

13:                                               ; preds = %12
  br i1 false, label %14, label %16

14:                                               ; preds = %13
  %15 = call zeroext i1 @errstart_cold(i32 noundef 11, ptr noundef null) #9
  br i1 %15, label %18, label %32

16:                                               ; preds = %13
  %17 = call zeroext i1 @errstart(i32 noundef 11, ptr noundef null)
  br i1 %17, label %18, label %32

18:                                               ; preds = %16, %14
  %19 = load ptr, ptr %3, align 8
  %20 = getelementptr inbounds nuw %struct.RecoveryLockEntry, ptr %19, i32 0, i32 0
  %21 = getelementptr inbounds nuw %struct.xl_standby_lock, ptr %20, i32 0, i32 0
  %22 = load i32, ptr %21, align 8
  %23 = load ptr, ptr %3, align 8
  %24 = getelementptr inbounds nuw %struct.RecoveryLockEntry, ptr %23, i32 0, i32 0
  %25 = getelementptr inbounds nuw %struct.xl_standby_lock, ptr %24, i32 0, i32 1
  %26 = load i32, ptr %25, align 4
  %27 = load ptr, ptr %3, align 8
  %28 = getelementptr inbounds nuw %struct.RecoveryLockEntry, ptr %27, i32 0, i32 0
  %29 = getelementptr inbounds nuw %struct.xl_standby_lock, ptr %28, i32 0, i32 2
  %30 = load i32, ptr %29, align 8
  %31 = call i32 (ptr, ...) @errmsg_internal(ptr noundef @.str.15, i32 noundef %22, i32 noundef %26, i32 noundef %30)
  call void @errfinish(ptr noundef @.str.7, i32 noundef 1045, ptr noundef @__func__.StandbyReleaseXidEntryLocks)
  br label %32

32:                                               ; preds = %18, %16, %14
  br label %33

33:                                               ; preds = %32
  br label %34

34:                                               ; preds = %33
  %35 = load ptr, ptr %3, align 8
  %36 = getelementptr inbounds nuw %struct.RecoveryLockEntry, ptr %35, i32 0, i32 0
  %37 = getelementptr inbounds nuw %struct.xl_standby_lock, ptr %36, i32 0, i32 1
  %38 = load i32, ptr %37, align 4
  %39 = getelementptr inbounds nuw %struct.LOCKTAG, ptr %5, i32 0, i32 0
  store i32 %38, ptr %39, align 4
  %40 = load ptr, ptr %3, align 8
  %41 = getelementptr inbounds nuw %struct.RecoveryLockEntry, ptr %40, i32 0, i32 0
  %42 = getelementptr inbounds nuw %struct.xl_standby_lock, ptr %41, i32 0, i32 2
  %43 = load i32, ptr %42, align 8
  %44 = getelementptr inbounds nuw %struct.LOCKTAG, ptr %5, i32 0, i32 1
  store i32 %43, ptr %44, align 4
  %45 = getelementptr inbounds nuw %struct.LOCKTAG, ptr %5, i32 0, i32 2
  store i32 0, ptr %45, align 4
  %46 = getelementptr inbounds nuw %struct.LOCKTAG, ptr %5, i32 0, i32 3
  store i16 0, ptr %46, align 4
  %47 = getelementptr inbounds nuw %struct.LOCKTAG, ptr %5, i32 0, i32 4
  store i8 0, ptr %47, align 2
  %48 = getelementptr inbounds nuw %struct.LOCKTAG, ptr %5, i32 0, i32 5
  store i8 1, ptr %48, align 1
  %49 = call zeroext i1 @LockRelease(ptr noundef %5, i32 noundef 8, i1 noundef zeroext true)
  br i1 %49, label %73, label %50

50:                                               ; preds = %34
  br label %51

51:                                               ; preds = %50
  br i1 false, label %52, label %54

52:                                               ; preds = %51
  %53 = call zeroext i1 @errstart_cold(i32 noundef 15, ptr noundef null) #9
  br i1 %53, label %56, label %70

54:                                               ; preds = %51
  %55 = call zeroext i1 @errstart(i32 noundef 15, ptr noundef null)
  br i1 %55, label %56, label %70

56:                                               ; preds = %54, %52
  %57 = load ptr, ptr %3, align 8
  %58 = getelementptr inbounds nuw %struct.RecoveryLockEntry, ptr %57, i32 0, i32 0
  %59 = getelementptr inbounds nuw %struct.xl_standby_lock, ptr %58, i32 0, i32 0
  %60 = load i32, ptr %59, align 8
  %61 = load ptr, ptr %3, align 8
  %62 = getelementptr inbounds nuw %struct.RecoveryLockEntry, ptr %61, i32 0, i32 0
  %63 = getelementptr inbounds nuw %struct.xl_standby_lock, ptr %62, i32 0, i32 1
  %64 = load i32, ptr %63, align 4
  %65 = load ptr, ptr %3, align 8
  %66 = getelementptr inbounds nuw %struct.RecoveryLockEntry, ptr %65, i32 0, i32 0
  %67 = getelementptr inbounds nuw %struct.xl_standby_lock, ptr %66, i32 0, i32 2
  %68 = load i32, ptr %67, align 8
  %69 = call i32 (ptr, ...) @errmsg_internal(ptr noundef @.str.16, i32 noundef %60, i32 noundef %64, i32 noundef %68)
  call void @errfinish(ptr noundef @.str.7, i32 noundef 1052, ptr noundef @__func__.StandbyReleaseXidEntryLocks)
  br label %70

70:                                               ; preds = %56, %54, %52
  br label %71

71:                                               ; preds = %70
  br label %72

72:                                               ; preds = %71
  br label %73

73:                                               ; preds = %72, %34
  %74 = load ptr, ptr %3, align 8
  %75 = getelementptr inbounds nuw %struct.RecoveryLockEntry, ptr %74, i32 0, i32 1
  %76 = load ptr, ptr %75, align 8
  store ptr %76, ptr %4, align 8
  %77 = load ptr, ptr @RecoveryLockHash, align 8
  %78 = load ptr, ptr %3, align 8
  %79 = call ptr @hash_search(ptr noundef %77, ptr noundef %78, i32 noundef 2, ptr noundef null)
  call void @llvm.lifetime.end.p0(i64 16, ptr %5) #8
  br label %80

80:                                               ; preds = %73
  %81 = load ptr, ptr %4, align 8
  store ptr %81, ptr %3, align 8
  br label %9, !llvm.loop !14

82:                                               ; preds = %9
  %83 = load ptr, ptr %2, align 8
  %84 = getelementptr inbounds nuw %struct.RecoveryLockXidEntry, ptr %83, i32 0, i32 1
  store ptr null, ptr %84, align 8
  call void @llvm.lifetime.end.p0(i64 8, ptr %4) #8
  call void @llvm.lifetime.end.p0(i64 8, ptr %3) #8
  ret void
}