; Function Attrs: nounwind uwtable
define internal fastcc void @StandbyReleaseXidEntryLocks(ptr noundef nonnull captures(none) %0) unnamed_addr #0 {
  %2 = alloca %struct.LOCKTAG, align 4
  %3 = getelementptr inbounds nuw i8, ptr %0, i64 8
  %4 = load ptr, ptr %3, align 8
  %.not14 = icmp eq ptr %4, null
  br i1 %.not14, label %._crit_edge, label %.lr.ph

.lr.ph:                                           ; preds = %1
  %5 = getelementptr inbounds nuw i8, ptr %2, i64 4
  %6 = getelementptr inbounds nuw i8, ptr %2, i64 8
  %7 = getelementptr inbounds nuw i8, ptr %2, i64 12
  %8 = getelementptr inbounds nuw i8, ptr %2, i64 14
  %9 = getelementptr inbounds nuw i8, ptr %2, i64 15
  br label %10

10:                                               ; preds = %.lr.ph, %32
  %.015 = phi ptr [ %4, %.lr.ph ], [ %34, %32 ]
  call void @llvm.lifetime.start.p0(i64 16, ptr nonnull %2) #7
  %11 = call zeroext i1 @errstart(i32 noundef 11, ptr noundef null) #7
  br i1 %11, label %12, label %19

12:                                               ; preds = %10
  %13 = load i32, ptr %.015, align 8
  %14 = getelementptr inbounds nuw i8, ptr %.015, i64 4
  %15 = load i32, ptr %14, align 4
  %16 = getelementptr inbounds nuw i8, ptr %.015, i64 8
  %17 = load i32, ptr %16, align 8
  %18 = call i32 (ptr, ...) @errmsg_internal(ptr noundef nonnull @.str.15, i32 noundef %13, i32 noundef %15, i32 noundef %17) #7
  call void @errfinish(ptr noundef nonnull @.str.7, i32 noundef 1045, ptr noundef nonnull @__func__.StandbyReleaseXidEntryLocks) #7
  br label %19

19:                                               ; preds = %12, %10
  %20 = getelementptr inbounds nuw i8, ptr %.015, i64 4
  %21 = load i32, ptr %20, align 4
  store i32 %21, ptr %2, align 4
  %22 = getelementptr inbounds nuw i8, ptr %.015, i64 8
  %23 = load i32, ptr %22, align 8
  store i32 %23, ptr %5, align 4
  store i32 0, ptr %6, align 4
  store i16 0, ptr %7, align 4
  store i8 0, ptr %8, align 2
  store i8 1, ptr %9, align 1
  %24 = call zeroext i1 @LockRelease(ptr noundef nonnull %2, i32 noundef 8, i1 noundef zeroext true) #7
  br i1 %24, label %32, label %25

25:                                               ; preds = %19
  %26 = call zeroext i1 @errstart(i32 noundef 15, ptr noundef null) #7
  br i1 %26, label %27, label %32

27:                                               ; preds = %25
  %28 = load i32, ptr %.015, align 8
  %29 = load i32, ptr %20, align 4
  %30 = load i32, ptr %22, align 8
  %31 = call i32 (ptr, ...) @errmsg_internal(ptr noundef nonnull @.str.16, i32 noundef %28, i32 noundef %29, i32 noundef %30) #7
  call void @errfinish(ptr noundef nonnull @.str.7, i32 noundef 1052, ptr noundef nonnull @__func__.StandbyReleaseXidEntryLocks) #7
  br label %32

32:                                               ; preds = %25, %27, %19
  %33 = getelementptr inbounds nuw i8, ptr %.015, i64 16
  %34 = load ptr, ptr %33, align 8
  %35 = load ptr, ptr @RecoveryLockHash, align 8
  %36 = call ptr @hash_search(ptr noundef %35, ptr noundef nonnull %.015, i32 noundef 2, ptr noundef null) #7
  call void @llvm.lifetime.end.p0(i64 16, ptr nonnull %2) #7
  %.not = icmp eq ptr %34, null
  br i1 %.not, label %._crit_edge, label %10, !llvm.loop !15

._crit_edge:                                      ; preds = %32, %1
  store ptr null, ptr %3, align 8
  ret void
}